; Function Attrs: nounwind uwtable
define internal fastcc range(i32 -1, 1) i32 @register_memoryview_xid(ptr noundef %0, ptr noundef writeonly captures(none) %1) unnamed_addr #0 {
  %3 = alloca %struct._PyXIData_lookup_context_t, align 8
  %4 = tail call ptr @PyType_FromModuleAndSpec(ptr noundef %0, ptr noundef nonnull @XIBufferViewType_spec, ptr noundef null) #7
  %5 = icmp eq ptr %4, null
  br i1 %5, label %Py_DECREF.exit, label %6

6:                                                ; preds = %2
  %7 = tail call i32 @PyModule_AddType(ptr noundef %0, ptr noundef nonnull %4) #7
  %8 = icmp slt i32 %7, 0
  br i1 %8, label %9, label %15

9:                                                ; preds = %6
  %10 = load i32, ptr %4, align 8, !tbaa !11
  %.not.i = icmp sgt i32 %10, -1
  br i1 %.not.i, label %11, label %Py_DECREF.exit

11:                                               ; preds = %9
  %12 = add nsw i32 %10, -1
  store i32 %12, ptr %4, align 8, !tbaa !11
  %13 = icmp eq i32 %12, 0
  br i1 %13, label %14, label %Py_DECREF.exit

14:                                               ; preds = %11
  tail call void @_Py_Dealloc(ptr noundef nonnull %4) #7
  br label %Py_DECREF.exit

15:                                               ; preds = %6
  store ptr %4, ptr %1, align 8, !tbaa !10
  %16 = tail call ptr @PyInterpreterState_Get() #7
  call void @llvm.lifetime.start.p0(i64 24, ptr nonnull %3) #7
  %17 = call i32 @_PyXIData_GetLookupContext(ptr noundef %16, ptr noundef nonnull %3) #7
  %18 = icmp slt i32 %17, 0
  br i1 %18, label %ensure_xid_class.exit.thread, label %ensure_xid_class.exit

ensure_xid_class.exit.thread:                     ; preds = %15
  call void @llvm.lifetime.end.p0(i64 24, ptr nonnull %3) #7
  br label %21

ensure_xid_class.exit:                            ; preds = %15
  %19 = call i32 @_PyXIData_RegisterClass(ptr noundef nonnull %3, ptr noundef nonnull @PyMemoryView_Type, ptr noundef nonnull @_memoryview_shared) #7
  call void @llvm.lifetime.end.p0(i64 24, ptr nonnull %3) #7
  %.fr = freeze i32 %19
  %20 = icmp slt i32 %.fr, 0
  br i1 %20, label %21, label %Py_DECREF.exit

21:                                               ; preds = %ensure_xid_class.exit.thread, %ensure_xid_class.exit
  br label %Py_DECREF.exit

Py_DECREF.exit:                                   ; preds = %21, %ensure_xid_class.exit, %14, %11, %9, %2
  %.0 = phi i32 [ -1, %2 ], [ -1, %9 ], [ -1, %11 ], [ -1, %14 ], [ -1, %21 ], [ 0, %ensure_xid_class.exit ]
  ret i32 %.0
}